; ModuleID = 'source-C-CXX/18/184.c'
source_filename = "source-C-CXX/18/184.c"
target datalayout = "e-m:e-p270:32:32-p271:32:32-p272:64:64-i64:64-f80:128-n8:16:32:64-S128"
target triple = "x86_64-pc-linux-gnu"

; Function Attrs: nounwind sspstrong uwtable
define dso_local i32 @main(i32 %0, i8** nocapture readnone %1) local_unnamed_addr #0 {
  %3 = alloca [100 x i8], align 16
  %4 = alloca [100 x i8], align 16
  %5 = alloca [100 x i8], align 16
  %6 = alloca [100 x i8], align 16
  %7 = alloca [100 x i8], align 16
  %8 = getelementptr inbounds [100 x i8], [100 x i8]* %3, i64 0, i64 0
  call void @llvm.lifetime.start.p0i8(i64 100, i8* nonnull %8) #8
  %9 = getelementptr inbounds [100 x i8], [100 x i8]* %4, i64 0, i64 0
  call void @llvm.lifetime.start.p0i8(i64 100, i8* nonnull %9) #8
  %10 = getelementptr inbounds [100 x i8], [100 x i8]* %5, i64 0, i64 0
  call void @llvm.lifetime.start.p0i8(i64 100, i8* nonnull %10) #8
  %11 = getelementptr inbounds [100 x i8], [100 x i8]* %6, i64 0, i64 0
  call void @llvm.lifetime.start.p0i8(i64 100, i8* nonnull %11) #8
  %12 = getelementptr inbounds [100 x i8], [100 x i8]* %7, i64 0, i64 0
  call void @llvm.lifetime.start.p0i8(i64 100, i8* nonnull %12) #8
  call void @llvm.memset.p0i8.i64(i8* noundef nonnull align 16 dereferenceable(100) %12, i8 0, i64 100, i1 false)
  %13 = call i32 (i8*, ...) bitcast (i32 (...)* @gets to i32 (i8*, ...)*)(i8* nonnull %8) #8
  %14 = call i32 (i8*, ...) bitcast (i32 (...)* @gets to i32 (i8*, ...)*)(i8* nonnull %9) #8
  %15 = call i32 (i8*, ...) bitcast (i32 (...)* @gets to i32 (i8*, ...)*)(i8* nonnull %10) #8
  br label %16

16:                                               ; preds = %40, %2
  %17 = phi i64 [ %42, %40 ], [ 0, %2 ]
  %18 = phi i32 [ %41, %40 ], [ 0, %2 ]
  %19 = getelementptr inbounds [100 x i8], [100 x i8]* %3, i64 0, i64 %17
  %20 = load i8, i8* %19, align 1, !tbaa !5
  switch i8 %20, label %21 [
    i8 0, label %43
    i8 32, label %25
  ]

21:                                               ; preds = %16
  %22 = sext i32 %18 to i64
  %23 = getelementptr inbounds [100 x i8], [100 x i8]* %6, i64 0, i64 %22
  store i8 %20, i8* %23, align 1, !tbaa !5
  %24 = add nsw i32 %18, 1
  br label %40

25:                                               ; preds = %16
  %26 = sext i32 %18 to i64
  %27 = getelementptr inbounds [100 x i8], [100 x i8]* %6, i64 0, i64 %26
  store i8 0, i8* %27, align 1, !tbaa !5
  %28 = call i32 @strcmp(i8* noundef nonnull %11, i8* noundef nonnull %9) #9
  %29 = icmp eq i32 %28, 0
  br i1 %29, label %30, label %35

30:                                               ; preds = %25
  %31 = call i8* @strcat(i8* noundef nonnull %12, i8* noundef nonnull %10) #8
  %32 = call i64 @strlen(i8* noundef nonnull %12)
  %33 = getelementptr [100 x i8], [100 x i8]* %7, i64 0, i64 %32
  %34 = bitcast i8* %33 to i16*
  store i16 32, i16* %34, align 1
  br label %40

35:                                               ; preds = %25
  %36 = call i8* @strcat(i8* noundef nonnull %12, i8* noundef nonnull %11) #8
  %37 = call i64 @strlen(i8* noundef nonnull %12)
  %38 = getelementptr [100 x i8], [100 x i8]* %7, i64 0, i64 %37
  %39 = bitcast i8* %38 to i16*
  store i16 32, i16* %39, align 1
  br label %40

40:                                               ; preds = %30, %35, %21
  %41 = phi i32 [ %24, %21 ], [ 0, %35 ], [ 0, %30 ]
  %42 = add nuw i64 %17, 1
  br label %16, !llvm.loop !8

43:                                               ; preds = %16
  %44 = sext i32 %18 to i64
  %45 = getelementptr inbounds [100 x i8], [100 x i8]* %6, i64 0, i64 %44
  store i8 0, i8* %45, align 1, !tbaa !5
  %46 = call i32 @strcmp(i8* noundef nonnull %11, i8* noundef nonnull %9) #9
  %47 = icmp eq i32 %46, 0
  %48 = select i1 %47, i8* %10, i8* %11
  %49 = call i8* @strcat(i8* noundef nonnull %12, i8* noundef nonnull %48) #8
  %50 = call i32 @puts(i8* nonnull %12)
  call void @llvm.lifetime.end.p0i8(i64 100, i8* nonnull %12) #8
  call void @llvm.lifetime.end.p0i8(i64 100, i8* nonnull %11) #8
  call void @llvm.lifetime.end.p0i8(i64 100, i8* nonnull %10) #8
  call void @llvm.lifetime.end.p0i8(i64 100, i8* nonnull %9) #8
  call void @llvm.lifetime.end.p0i8(i64 100, i8* nonnull %8) #8
  ret i32 0
}

; Function Attrs: argmemonly mustprogress nofree nosync nounwind willreturn
declare void @llvm.lifetime.start.p0i8(i64 immarg, i8* nocapture) #1

; Function Attrs: argmemonly mustprogress nofree nounwind willreturn writeonly
declare void @llvm.memset.p0i8.i64(i8* nocapture writeonly, i8, i64, i1 immarg) #2

declare i32 @gets(...) local_unnamed_addr #3

; Function Attrs: argmemonly mustprogress nofree nounwind readonly willreturn
declare i32 @strcmp(i8* nocapture, i8* nocapture) local_unnamed_addr #4

; Function Attrs: argmemonly mustprogress nofree nounwind willreturn
declare i8* @strcat(i8* noalias returned, i8* noalias nocapture readonly) local_unnamed_addr #5

; Function Attrs: nofree nounwind
declare noundef i32 @puts(i8* nocapture noundef readonly) local_unnamed_addr #6

; Function Attrs: argmemonly mustprogress nofree nosync nounwind willreturn
declare void @llvm.lifetime.end.p0i8(i64 immarg, i8* nocapture) #1

; Function Attrs: argmemonly nofree nounwind readonly willreturn
declare i64 @strlen(i8* nocapture) local_unnamed_addr #7


!llvm.module.flags = !{!0, !1, !2, !3}
!llvm.ident = !{!4}

!0 = !{i32 1, !"wchar_size", i32 4}
!1 = !{i32 7, !"PIC Level", i32 2}
!2 = !{i32 7, !"PIE Level", i32 2}
!3 = !{i32 7, !"uwtable", i32 1}
!4 = !{!"clang version 13.0.0"}
!5 = !{!6, !6, i64 0}
!6 = !{!"omnipotent char", !7, i64 0}
!7 = !{!"Simple C/C++ TBAA"}
!8 = distinct !{!8, !9}
!9 = !{!"llvm.loop.mustprogress"}
